; Function Attrs: nounwind uwtable
define ptr @l_Lake_takeArg_x3f___rarg___lambda__1(ptr noundef %0) #0 {
  %2 = ptrtoint ptr %0 to i64
  %3 = and i64 %2, 1
  %.not.i24 = icmp eq i64 %3, 0
  br i1 %.not.i24, label %7, label %4

4:                                                ; preds = %1
  %5 = lshr i64 %2, 1
  %6 = trunc i64 %5 to i32
  br label %lean_obj_tag.exit

7:                                                ; preds = %1
  %8 = getelementptr i8, ptr %0, i64 4
  %.val.i = load i32, ptr %8, align 4
  %9 = lshr i32 %.val.i, 24
  br label %lean_obj_tag.exit

lean_obj_tag.exit:                                ; preds = %4, %7
  %.0.i = phi i32 [ %6, %4 ], [ %9, %7 ]
  %10 = icmp eq i32 %.0.i, 0
  br i1 %10, label %11, label %13

11:                                               ; preds = %lean_obj_tag.exit
  %12 = load ptr, ptr @l_Lake_takeArg_x3f___rarg___lambda__1___closed__1, align 8, !tbaa !11
  br label %63

13:                                               ; preds = %lean_obj_tag.exit
  %.val = load i32, ptr %0, align 4, !tbaa !4
  %14 = icmp eq i32 %.val, 1
  %15 = getelementptr inbounds nuw i8, ptr %0, i64 8
  %16 = load ptr, ptr %15, align 8, !tbaa !11
  br i1 %14, label %17, label %26

17:                                               ; preds = %13
  tail call void @lean_inc_heartbeat() #3
  %18 = tail call noalias ptr @mi_malloc_small(i64 noundef 16) #3
  %19 = icmp eq ptr %18, null
  br i1 %19, label %20, label %lean_alloc_ctor.exit

20:                                               ; preds = %17
  tail call void @lean_internal_panic_out_of_memory() #4
  unreachable

lean_alloc_ctor.exit:                             ; preds = %17
  %21 = getelementptr inbounds nuw i8, ptr %18, i64 4
  store i32 1, ptr %18, align 4, !tbaa !4
  store i32 16842768, ptr %21, align 4
  %22 = getelementptr inbounds nuw i8, ptr %18, i64 8
  store ptr %16, ptr %22, align 8, !tbaa !11
  %23 = getelementptr inbounds nuw i8, ptr %0, i64 4
  %24 = load i32, ptr %23, align 4
  %25 = and i32 %24, 16777215
  store i32 %25, ptr %23, align 4
  store ptr %18, ptr %15, align 8, !tbaa !11
  br label %63

26:                                               ; preds = %13
  %27 = getelementptr inbounds nuw i8, ptr %0, i64 16
  %28 = load ptr, ptr %27, align 8, !tbaa !11
  %29 = ptrtoint ptr %28 to i64
  %30 = and i64 %29, 1
  %.not = icmp eq i64 %30, 0
  br i1 %.not, label %31, label %lean_inc.exit23

31:                                               ; preds = %26
  %.val.i25 = load i32, ptr %28, align 4, !tbaa !4
  %32 = icmp sgt i32 %.val.i25, 0
  br i1 %32, label %33, label %35, !prof !9

33:                                               ; preds = %31
  %34 = add nuw i32 %.val.i25, 1
  store i32 %34, ptr %28, align 4, !tbaa !4
  br label %lean_inc.exit23

35:                                               ; preds = %31
  %.not.i26 = icmp eq i32 %.val.i25, 0
  br i1 %.not.i26, label %lean_inc.exit23, label %36

36:                                               ; preds = %35
  tail call void @lean_inc_ref_cold(ptr noundef nonnull %28) #3
  br label %lean_inc.exit23

lean_inc.exit23:                                  ; preds = %36, %35, %33, %26
  %37 = ptrtoint ptr %16 to i64
  %38 = and i64 %37, 1
  %.not32 = icmp eq i64 %38, 0
  br i1 %.not32, label %39, label %lean_inc.exit

39:                                               ; preds = %lean_inc.exit23
  %.val.i27 = load i32, ptr %16, align 4, !tbaa !4
  %40 = icmp sgt i32 %.val.i27, 0
  br i1 %40, label %41, label %43, !prof !9

41:                                               ; preds = %39
  %42 = add nuw i32 %.val.i27, 1
  store i32 %42, ptr %16, align 4, !tbaa !4
  br label %lean_inc.exit

43:                                               ; preds = %39
  %.not.i28 = icmp eq i32 %.val.i27, 0
  br i1 %.not.i28, label %lean_inc.exit, label %44

44:                                               ; preds = %43
  tail call void @lean_inc_ref_cold(ptr noundef nonnull %16) #3
  br label %lean_inc.exit

lean_inc.exit:                                    ; preds = %44, %43, %41, %lean_inc.exit23
  br i1 %.not.i24, label %45, label %lean_dec.exit

45:                                               ; preds = %lean_inc.exit
  %46 = load i32, ptr %0, align 4, !tbaa !4
  %47 = icmp sgt i32 %46, 1
  br i1 %47, label %48, label %50, !prof !9

48:                                               ; preds = %45
  %49 = add nsw i32 %46, -1
  store i32 %49, ptr %0, align 4, !tbaa !4
  br label %lean_dec.exit

50:                                               ; preds = %45
  %.not.i = icmp eq i32 %46, 0
  br i1 %.not.i, label %lean_dec.exit, label %51

51:                                               ; preds = %50
  tail call void @lean_dec_ref_cold(ptr noundef nonnull %0) #3
  br label %lean_dec.exit

lean_dec.exit:                                    ; preds = %51, %50, %48, %lean_inc.exit
  tail call void @lean_inc_heartbeat() #3
  %52 = tail call noalias ptr @mi_malloc_small(i64 noundef 16) #3
  %53 = icmp eq ptr %52, null
  br i1 %53, label %54, label %lean_alloc_ctor.exit30

54:                                               ; preds = %lean_dec.exit
  tail call void @lean_internal_panic_out_of_memory() #4
  unreachable

lean_alloc_ctor.exit30:                           ; preds = %lean_dec.exit
  %55 = getelementptr inbounds nuw i8, ptr %52, i64 4
  store i32 1, ptr %52, align 4, !tbaa !4
  store i32 16842768, ptr %55, align 4
  %56 = getelementptr inbounds nuw i8, ptr %52, i64 8
  store ptr %16, ptr %56, align 8, !tbaa !11
  tail call void @lean_inc_heartbeat() #3
  %57 = tail call noalias ptr @mi_malloc_small(i64 noundef 24) #3
  %58 = icmp eq ptr %57, null
  br i1 %58, label %59, label %lean_alloc_ctor.exit31

59:                                               ; preds = %lean_alloc_ctor.exit30
  tail call void @lean_internal_panic_out_of_memory() #4
  unreachable

lean_alloc_ctor.exit31:                           ; preds = %lean_alloc_ctor.exit30
  %60 = getelementptr inbounds nuw i8, ptr %57, i64 4
  store i32 1, ptr %57, align 4, !tbaa !4
  store i32 131096, ptr %60, align 4
  %61 = getelementptr inbounds nuw i8, ptr %57, i64 8
  store ptr %52, ptr %61, align 8, !tbaa !11
  %62 = getelementptr inbounds nuw i8, ptr %57, i64 16
  store ptr %28, ptr %62, align 8, !tbaa !11
  br label %63

63:                                               ; preds = %lean_alloc_ctor.exit, %lean_alloc_ctor.exit31, %11
  %.0 = phi ptr [ %12, %11 ], [ %0, %lean_alloc_ctor.exit ], [ %57, %lean_alloc_ctor.exit31 ]
  ret ptr %.0
}